; Function Attrs: mustprogress uwtable
define void @_ZN7rocksdb15BlobFileBuilder6FinishEv(ptr noalias sret(%"class.rocksdb::Status") align 8 %agg.result, ptr noundef nonnull align 8 dereferenceable(264) %this) local_unnamed_addr #2 align 2 personality ptr @__gxx_personality_v0 {
entry:
  %writer_.i = getelementptr inbounds i8, ptr %this, i64 240
  %0 = load ptr, ptr %writer_.i, align 8
  %cmp.i.i.not = icmp eq ptr %0, null
  br i1 %cmp.i.i.not, label %if.then, label %if.end

if.then:                                          ; preds = %entry
  %state_.i.i = getelementptr inbounds i8, ptr %agg.result, i64 8
  store ptr null, ptr %state_.i.i, align 8, !alias.scope !40
  tail call void @llvm.memset.p0.i64(ptr noundef nonnull align 8 dereferenceable(6) %agg.result, i8 0, i64 6, i1 false), !alias.scope !40
  br label %return

if.end:                                           ; preds = %entry
  tail call void @_ZN7rocksdb15BlobFileBuilder13CloseBlobFileEv(ptr sret(%"class.rocksdb::Status") align 8 %agg.result, ptr noundef nonnull align 8 dereferenceable(264) %this)
  br label %return

return:                                           ; preds = %if.end, %if.then
  ret void
}